; ModuleID = '12/629.c'
source_filename = "12/629.c"
target datalayout = "e-m:e-p270:32:32-p271:32:32-p272:64:64-i64:64-f80:128-n8:16:32:64-S128"
target triple = "x86_64-pc-linux-gnu"

@.str = private unnamed_addr constant [3 x i8] c"%d\00", align 1
@.str.1 = private unnamed_addr constant [4 x i8] c"%d\0A\00", align 1

; Function Attrs: noinline nounwind uwtable
define dso_local i32 @main(i32 %0, i8** %1) #0 {
  %3 = alloca i32, align 4
  %4 = alloca i32, align 4
  %5 = alloca i8**, align 8
  %6 = alloca [16 x i32], align 16
  %7 = alloca i32, align 4
  %8 = alloca i32, align 4
  %9 = alloca i32, align 4
  %10 = alloca i32, align 4
  %11 = alloca i32, align 4
  store i32 0, i32* %3, align 4
  store i32 %0, i32* %4, align 4
  store i8** %1, i8*** %5, align 8
  store i32 0, i32* %8, align 4
  br label %12

12:                                               ; preds = %82, %2
  %13 = getelementptr inbounds [16 x i32], [16 x i32]* %6, i64 0, i64 0
  %14 = call i32 (i8*, ...) @__isoc99_scanf(i8* getelementptr inbounds ([3 x i8], [3 x i8]* @.str, i64 0, i64 0), i32* %13)
  %15 = getelementptr inbounds [16 x i32], [16 x i32]* %6, i64 0, i64 0
  %16 = load i32, i32* %15, align 16
  %17 = icmp eq i32 %16, -1
  br i1 %17, label %18, label %19

18:                                               ; preds = %12
  ret i32 0

19:                                               ; preds = %12
  br label %20

20:                                               ; preds = %19
  %21 = getelementptr inbounds [16 x i32], [16 x i32]* %6, i64 0, i64 0
  %22 = load i32, i32* %21, align 16
  %23 = icmp ne i32 %22, 0
  br i1 %23, label %24, label %28

24:                                               ; preds = %20
  %25 = getelementptr inbounds [16 x i32], [16 x i32]* %6, i64 0, i64 0
  %26 = load i32, i32* %25, align 16
  %27 = icmp ne i32 %26, -1
  br label %28

28:                                               ; preds = %24, %20
  %29 = phi i1 [ false, %20 ], [ %27, %24 ]
  br i1 %29, label %30, label %81

30:                                               ; preds = %28
  store i32 0, i32* %7, align 4
  store i32 1, i32* %9, align 4
  br label %31

31:                                               ; preds = %43, %30
  %32 = load i32, i32* %9, align 4
  %33 = sext i32 %32 to i64
  %34 = getelementptr inbounds [16 x i32], [16 x i32]* %6, i64 0, i64 %33
  %35 = call i32 (i8*, ...) @__isoc99_scanf(i8* getelementptr inbounds ([3 x i8], [3 x i8]* @.str, i64 0, i64 0), i32* %34)
  %36 = load i32, i32* %9, align 4
  %37 = sext i32 %36 to i64
  %38 = getelementptr inbounds [16 x i32], [16 x i32]* %6, i64 0, i64 %37
  %39 = load i32, i32* %38, align 4
  %40 = icmp eq i32 %39, 0
  br i1 %40, label %41, label %42

41:                                               ; preds = %31
  br label %46

42:                                               ; preds = %31
  br label %43

43:                                               ; preds = %42
  %44 = load i32, i32* %9, align 4
  %45 = add nsw i32 %44, 1
  store i32 %45, i32* %9, align 4
  br label %31

46:                                               ; preds = %41
  store i32 0, i32* %10, align 4
  br label %47

47:                                               ; preds = %75, %46
  %48 = load i32, i32* %10, align 4
  %49 = load i32, i32* %9, align 4
  %50 = icmp slt i32 %48, %49
  br i1 %50, label %51, label %78

51:                                               ; preds = %47
  store i32 0, i32* %11, align 4
  br label %52

52:                                               ; preds = %71, %51
  %53 = load i32, i32* %11, align 4
  %54 = load i32, i32* %9, align 4
  %55 = icmp slt i32 %53, %54
  br i1 %55, label %56, label %74

56:                                               ; preds = %52
  %57 = load i32, i32* %10, align 4
  %58 = sext i32 %57 to i64
  %59 = getelementptr inbounds [16 x i32], [16 x i32]* %6, i64 0, i64 %58
  %60 = load i32, i32* %59, align 4
  %61 = load i32, i32* %11, align 4
  %62 = sext i32 %61 to i64
  %63 = getelementptr inbounds [16 x i32], [16 x i32]* %6, i64 0, i64 %62
  %64 = load i32, i32* %63, align 4
  %65 = mul nsw i32 %64, 2
  %66 = icmp eq i32 %60, %65
  br i1 %66, label %67, label %70

67:                                               ; preds = %56
  %68 = load i32, i32* %7, align 4
  %69 = add nsw i32 %68, 1
  store i32 %69, i32* %7, align 4
  br label %70

70:                                               ; preds = %67, %56
  br label %71

71:                                               ; preds = %70
  %72 = load i32, i32* %11, align 4
  %73 = add nsw i32 %72, 1
  store i32 %73, i32* %11, align 4
  br label %52

74:                                               ; preds = %52
  br label %75

75:                                               ; preds = %74
  %76 = load i32, i32* %10, align 4
  %77 = add nsw i32 %76, 1
  store i32 %77, i32* %10, align 4
  br label %47

78:                                               ; preds = %47
  %79 = load i32, i32* %7, align 4
  %80 = call i32 (i8*, ...) @printf(i8* getelementptr inbounds ([4 x i8], [4 x i8]* @.str.1, i64 0, i64 0), i32 %79)
  br label %81

81:                                               ; preds = %78, %28
  br label %82

82:                                               ; preds = %81
  %83 = load i32, i32* %8, align 4
  %84 = add nsw i32 %83, 1
  store i32 %84, i32* %8, align 4
  br label %12
}

declare dso_local i32 @__isoc99_scanf(i8*, ...) #1

declare dso_local i32 @printf(i8*, ...) #1


!llvm.module.flags = !{!0}
!llvm.ident = !{!1}

!0 = !{i32 1, !"wchar_size", i32 4}
!1 = !{!"clang version 10.0.0-4ubuntu1 "}
